(lp0
S'settings/adv_sett'
p1
aS'0'
p2
ag2
ag2
ag2
ag2
ag2
aS''
p3
ag3
ag3
ag3
ag3
ag3
ag3
ag3
ag3
ag3
ag3
ag3
ag3
ag3
ag3
ag3
ag3
ag3
aS'89'
p4
ag3
ag3
aS'56'
p5
ag3
ag3
ag3
ag3
ag3
ag3
ag3
ag3
ag3
ag3
ag3
ag3
ag3
ag3
ag3
ag3
ag3
ag3
a.