(S'17-10-13'
p0
S'14:32'
p1
S'Flash'
p2
tp3
.(S'17-10-13'
p0
S'14:37'
p1
S'Flash'
p2
tp3
.(S'17-10-13'
p0
S'14:38'
p1
S'Flash'
p2
tp3
.(S'17-10-13'
p0
S'14:39'
p1
S'Flash'
p2
tp3
.(S'17-10-13'
p0
S'14:39'
p1
S'Flash'
p2
tp3
.(S'17-10-13'
p0
S'14:45'
p1
S'Flash'
p2
tp3
.(S'17-10-13'
p0
S'15:53'
p1
S'Message'
p2
tp3
.(S'17-10-13'
p0
S'15:53'
p1
S'Message'
p2
tp3
.(S'17-10-13'
p0
S'15:53'
p1
S'Message'
p2
tp3
.(S'17-10-13'
p0
S'15:53'
p1
S'Message'
p2
tp3
.(S'17-10-13'
p0
S'15:53'
p1
S'Message'
p2
tp3
.(S'17-10-13'
p0
S'15:53'
p1
S'Message'
p2
tp3
.(S'17-10-13'
p0
S'15:53'
p1
S'Message'
p2
tp3
.(S'17-10-13'
p0
S'15:53'
p1
S'Message'
p2
tp3
.(S'17-10-13'
p0
S'15:53'
p1
S'Message'
p2
tp3
.(S'17-10-13'
p0
S'15:53'
p1
S'Message'
p2
tp3
.(S'17-10-13'
p0
S'15:53'
p1
S'Message'
p2
tp3
.(S'17-10-13'
p0
S'15:54'
p1
S'Message'
p2
tp3
.(S'17-10-13'
p0
S'16:13'
p1
S'Message'
p2
tp3
.(S'17-10-13'
p0
S'16:15'
p1
S'Message'
p2
tp3
.(S'17-10-13'
p0
S'16:28'
p1
S'Message'
p2
tp3
.